target datalayout = "e-m:e-p270:32:32-p271:32:32-p272:64:64-i64:64-i128:128-f80:128-n8:16:32:64-S128"
target triple = "x86_64-pc-linux-gnu"

@hf_sip_icid_value = internal global i32 0, align 4
@hf_sip_icid_gen_addr = internal global i32 0, align 4
@.str.825 = private unnamed_addr constant [14 x i8] c"icid-gen-addr\00", align 1

; Function Attrs: null_pointer_is_valid sspstrong uwtable
define internal void @dissect_sip_p_charging_vector_header(ptr noundef %0, ptr noundef %1, i32 noundef %2, i32 noundef %3) #0 {
  %5 = alloca ptr, align 8
  %6 = alloca ptr, align 8
  %7 = alloca i32, align 4
  %8 = alloca i32, align 4
  %9 = alloca i32, align 4
  %10 = alloca i32, align 4
  %11 = alloca i32, align 4
  %12 = alloca i32, align 4
  %13 = alloca i32, align 4
  %14 = alloca ptr, align 8
  %15 = alloca i32, align 4
  store ptr %0, ptr %5, align 8
  store ptr %1, ptr %6, align 8
  store i32 %2, ptr %7, align 4
  store i32 %3, ptr %8, align 4
  call void @llvm.lifetime.start.p0(i64 4, ptr %9) #18
  call void @llvm.lifetime.start.p0(i64 4, ptr %10) #18
  call void @llvm.lifetime.start.p0(i64 4, ptr %11) #18
  call void @llvm.lifetime.start.p0(i64 4, ptr %12) #18
  %16 = load ptr, ptr %5, align 8
  %17 = load i32, ptr %7, align 4
  %18 = load i32, ptr %8, align 4
  %19 = load i32, ptr %7, align 4
  %20 = sub i32 %18, %19
  %21 = call i32 @tvb_skip_wsp(ptr noundef %16, i32 noundef %17, i32 noundef %20)
  store i32 %21, ptr %7, align 4
  %22 = load i32, ptr %7, align 4
  %23 = load i32, ptr %8, align 4
  %24 = icmp sge i32 %22, %23
  br i1 %24, label %25, label %26

25:                                               ; preds = %4
  store i32 1, ptr %13, align 4
  br label %138

26:                                               ; preds = %4
  %27 = load i32, ptr %7, align 4
  store i32 %27, ptr %9, align 4
  %28 = load ptr, ptr %5, align 8
  %29 = load i32, ptr %9, align 4
  %30 = load i32, ptr %8, align 4
  %31 = load i32, ptr %9, align 4
  %32 = sub i32 %30, %31
  %33 = call i32 @tvb_find_uint8(ptr noundef %28, i32 noundef %29, i32 noundef %32, i8 noundef zeroext 59)
  store i32 %33, ptr %10, align 4
  %34 = load i32, ptr %10, align 4
  %35 = icmp eq i32 %34, -1
  br i1 %35, label %36, label %38

36:                                               ; preds = %26
  %37 = load i32, ptr %8, align 4
  store i32 %37, ptr %10, align 4
  br label %38

38:                                               ; preds = %36, %26
  %39 = load i32, ptr %10, align 4
  %40 = load i32, ptr %9, align 4
  %41 = sub i32 %39, %40
  store i32 %41, ptr %11, align 4
  %42 = load ptr, ptr %5, align 8
  %43 = load i32, ptr %9, align 4
  %44 = add i32 %43, 1
  %45 = load i32, ptr %11, align 4
  %46 = call i32 @tvb_find_uint8(ptr noundef %42, i32 noundef %44, i32 noundef %45, i8 noundef zeroext 61)
  store i32 %46, ptr %12, align 4
  %47 = load i32, ptr %12, align 4
  %48 = icmp eq i32 %47, -1
  br i1 %48, label %49, label %50

49:                                               ; preds = %38
  store i32 1, ptr %13, align 4
  br label %138

50:                                               ; preds = %38
  %51 = load ptr, ptr %6, align 8
  %52 = load i32, ptr @hf_sip_icid_value, align 4
  %53 = load ptr, ptr %5, align 8
  %54 = load i32, ptr %12, align 4
  %55 = add i32 %54, 1
  %56 = load i32, ptr %10, align 4
  %57 = load i32, ptr %12, align 4
  %58 = sub i32 %56, %57
  %59 = sub i32 %58, 1
  %60 = call ptr @proto_tree_add_item(ptr noundef %51, i32 noundef %52, ptr noundef %53, i32 noundef %55, i32 noundef %59, i32 noundef 2)
  %61 = load i32, ptr %10, align 4
  %62 = add i32 %61, 1
  store i32 %62, ptr %9, align 4
  br label %63

63:                                               ; preds = %134, %50
  %64 = load i32, ptr %9, align 4
  %65 = load i32, ptr %8, align 4
  %66 = icmp slt i32 %64, %65
  br i1 %66, label %67, label %137

67:                                               ; preds = %63
  call void @llvm.lifetime.start.p0(i64 8, ptr %14) #18
  store ptr null, ptr %14, align 8
  call void @llvm.lifetime.start.p0(i64 4, ptr %15) #18
  %68 = load ptr, ptr %5, align 8
  %69 = load i32, ptr %9, align 4
  %70 = load i32, ptr %8, align 4
  %71 = load i32, ptr %9, align 4
  %72 = sub i32 %70, %71
  %73 = call i32 @tvb_skip_wsp(ptr noundef %68, i32 noundef %69, i32 noundef %72)
  store i32 %73, ptr %9, align 4
  %74 = load ptr, ptr %5, align 8
  %75 = load i32, ptr %9, align 4
  %76 = load i32, ptr %8, align 4
  %77 = load i32, ptr %9, align 4
  %78 = sub i32 %76, %77
  %79 = call i32 @tvb_find_uint8(ptr noundef %74, i32 noundef %75, i32 noundef %78, i8 noundef zeroext 59)
  store i32 %79, ptr %10, align 4
  %80 = load i32, ptr %10, align 4
  %81 = icmp eq i32 %80, -1
  br i1 %81, label %82, label %84

82:                                               ; preds = %67
  %83 = load i32, ptr %8, align 4
  store i32 %83, ptr %10, align 4
  br label %84

84:                                               ; preds = %82, %67
  %85 = load i32, ptr %10, align 4
  %86 = load i32, ptr %9, align 4
  %87 = sub i32 %85, %86
  store i32 %87, ptr %11, align 4
  %88 = load ptr, ptr %5, align 8
  %89 = load i32, ptr %9, align 4
  %90 = add i32 %89, 1
  %91 = load i32, ptr %11, align 4
  %92 = call i32 @tvb_find_uint8(ptr noundef %88, i32 noundef %90, i32 noundef %91, i8 noundef zeroext 61)
  store i32 %92, ptr %12, align 4
  %93 = load i32, ptr %12, align 4
  %94 = icmp ne i32 %93, -1
  br i1 %94, label %95, label %128

95:                                               ; preds = %84
  %96 = load i32, ptr %12, align 4
  store i32 %96, ptr %15, align 4
  %97 = call ptr @wmem_packet_scope()
  %98 = load ptr, ptr %5, align 8
  %99 = load i32, ptr %9, align 4
  %100 = load i32, ptr %15, align 4
  %101 = load i32, ptr %9, align 4
  %102 = sub i32 %100, %101
  %103 = call ptr @tvb_get_string_enc(ptr noundef %97, ptr noundef %98, i32 noundef %99, i32 noundef %102, i32 noundef 2)
  store ptr %103, ptr %14, align 8
  %104 = load ptr, ptr %14, align 8
  %105 = icmp ne ptr %104, null
  br i1 %105, label %106, label %121

106:                                              ; preds = %95
  %107 = load ptr, ptr %14, align 8
  %108 = call i32 @g_ascii_strcasecmp(ptr noundef %107, ptr noundef @.str.825)
  %109 = icmp eq i32 %108, 0
  br i1 %109, label %110, label %121

110:                                              ; preds = %106
  %111 = load ptr, ptr %6, align 8
  %112 = load i32, ptr @hf_sip_icid_gen_addr, align 4
  %113 = load ptr, ptr %5, align 8
  %114 = load i32, ptr %12, align 4
  %115 = add i32 %114, 1
  %116 = load i32, ptr %10, align 4
  %117 = load i32, ptr %12, align 4
  %118 = sub i32 %116, %117
  %119 = sub i32 %118, 1
  %120 = call ptr @proto_tree_add_item(ptr noundef %111, i32 noundef %112, ptr noundef %113, i32 noundef %115, i32 noundef %119, i32 noundef 2)
  br label %127

121:                                              ; preds = %106, %95
  %122 = load ptr, ptr %6, align 8
  %123 = load ptr, ptr %5, align 8
  %124 = load i32, ptr %9, align 4
  %125 = load i32, ptr %11, align 4
  %126 = call ptr @proto_tree_add_format_text(ptr noundef %122, ptr noundef %123, i32 noundef %124, i32 noundef %125)
  br label %127

127:                                              ; preds = %121, %110
  br label %134

128:                                              ; preds = %84
  %129 = load ptr, ptr %6, align 8
  %130 = load ptr, ptr %5, align 8
  %131 = load i32, ptr %9, align 4
  %132 = load i32, ptr %11, align 4
  %133 = call ptr @proto_tree_add_format_text(ptr noundef %129, ptr noundef %130, i32 noundef %131, i32 noundef %132)
  br label %134

134:                                              ; preds = %128, %127
  %135 = load i32, ptr %10, align 4
  %136 = add i32 %135, 1
  store i32 %136, ptr %9, align 4
  call void @llvm.lifetime.end.p0(i64 4, ptr %15) #18
  call void @llvm.lifetime.end.p0(i64 8, ptr %14) #18
  br label %63, !llvm.loop !62

137:                                              ; preds = %63
  store i32 0, ptr %13, align 4
  br label %138

138:                                              ; preds = %137, %49, %25
  call void @llvm.lifetime.end.p0(i64 4, ptr %12) #18
  call void @llvm.lifetime.end.p0(i64 4, ptr %11) #18
  call void @llvm.lifetime.end.p0(i64 4, ptr %10) #18
  call void @llvm.lifetime.end.p0(i64 4, ptr %9) #18
  %139 = load i32, ptr %13, align 4
  switch i32 %139, label %141 [
    i32 0, label %140
    i32 1, label %140
  ]

140:                                              ; preds = %138, %138
  ret void

141:                                              ; preds = %138
  unreachable
}