; Function Attrs: null_pointer_is_valid sspstrong uwtable
define internal fastcc void @dissect_sip_p_charging_vector_header(ptr noundef %0, ptr noundef %1, i32 noundef %2, i32 noundef %3) unnamed_addr #0 {
  %5 = sub i32 %3, %2
  %6 = tail call i32 @tvb_skip_wsp(ptr noundef %0, i32 noundef %2, i32 noundef %5)
  %.not = icmp slt i32 %6, %3
  br i1 %.not, label %7, label %.loopexit

7:                                                ; preds = %4
  %8 = sub i32 %3, %6
  %9 = tail call i32 @tvb_find_uint8(ptr noundef %0, i32 noundef %6, i32 noundef %8, i8 noundef zeroext 59)
  %10 = icmp eq i32 %9, -1
  %spec.select = select i1 %10, i32 %3, i32 %9
  %11 = sub i32 %spec.select, %6
  %12 = add nsw i32 %6, 1
  %13 = tail call i32 @tvb_find_uint8(ptr noundef %0, i32 noundef %12, i32 noundef %11, i8 noundef zeroext 61)
  %14 = icmp eq i32 %13, -1
  br i1 %14, label %.loopexit, label %15

15:                                               ; preds = %7
  %16 = load i32, ptr @hf_sip_icid_value, align 4
  %17 = add nuw i32 %13, 1
  %18 = xor i32 %13, -1
  %19 = add i32 %spec.select, %18
  %20 = tail call ptr @proto_tree_add_item(ptr noundef %1, i32 noundef %16, ptr noundef %0, i32 noundef %17, i32 noundef %19, i32 noundef 2)
  %.06374 = add i32 %spec.select, 1
  %21 = icmp slt i32 %.06374, %3
  br i1 %21, label %.lr.ph, label %.loopexit

.lr.ph:                                           ; preds = %15, %47
  %.06375 = phi i32 [ %.063, %47 ], [ %.06374, %15 ]
  %22 = sub i32 %3, %.06375
  %23 = tail call i32 @tvb_skip_wsp(ptr noundef %0, i32 noundef %.06375, i32 noundef %22)
  %24 = sub i32 %3, %23
  %25 = tail call i32 @tvb_find_uint8(ptr noundef %0, i32 noundef %23, i32 noundef %24, i8 noundef zeroext 59)
  %26 = icmp eq i32 %25, -1
  %spec.select73 = select i1 %26, i32 %3, i32 %25
  %27 = sub i32 %spec.select73, %23
  %28 = add i32 %23, 1
  %29 = tail call i32 @tvb_find_uint8(ptr noundef %0, i32 noundef %28, i32 noundef %27, i8 noundef zeroext 61)
  %.not71 = icmp eq i32 %29, -1
  br i1 %.not71, label %45, label %30

30:                                               ; preds = %.lr.ph
  %31 = tail call ptr @wmem_packet_scope()
  %32 = sub i32 %29, %23
  %33 = tail call ptr @tvb_get_string_enc(ptr noundef %31, ptr noundef %0, i32 noundef %23, i32 noundef %32, i32 noundef 2)
  %.not72 = icmp eq ptr %33, null
  br i1 %.not72, label %43, label %34

34:                                               ; preds = %30
  %35 = tail call i32 @g_ascii_strcasecmp(ptr noundef nonnull %33, ptr noundef nonnull @.str.825)
  %36 = icmp eq i32 %35, 0
  br i1 %36, label %37, label %43

37:                                               ; preds = %34
  %38 = load i32, ptr @hf_sip_icid_gen_addr, align 4
  %39 = add nuw i32 %29, 1
  %40 = xor i32 %29, -1
  %41 = add i32 %spec.select73, %40
  %42 = tail call ptr @proto_tree_add_item(ptr noundef %1, i32 noundef %38, ptr noundef %0, i32 noundef %39, i32 noundef %41, i32 noundef 2)
  br label %47

43:                                               ; preds = %34, %30
  %44 = tail call ptr @proto_tree_add_format_text(ptr noundef %1, ptr noundef %0, i32 noundef %23, i32 noundef %27)
  br label %47

45:                                               ; preds = %.lr.ph
  %46 = tail call ptr @proto_tree_add_format_text(ptr noundef %1, ptr noundef %0, i32 noundef %23, i32 noundef %27)
  br label %47

47:                                               ; preds = %37, %43, %45
  %.063 = add i32 %spec.select73, 1
  %48 = icmp slt i32 %.063, %3
  br i1 %48, label %.lr.ph, label %.loopexit, !llvm.loop !61

.loopexit:                                        ; preds = %47, %15, %7, %4
  ret void
}